; Function Attrs: mustprogress nofree norecurse nosync nounwind willreturn memory(read, argmem: write, inaccessiblemem: none) uwtable
define dso_local void @_ZN4Luau13CstExprIfElseC2ENS_8PositionES1_b(ptr noundef nonnull writeonly align 4 captures(none) dereferenceable(21) initializes((0, 21)) %0, i64 %1, i64 %2, i1 noundef zeroext %3) unnamed_addr #4 align 2 {
  %5 = zext i1 %3 to i8
  %6 = load i32, ptr @_ZN4Luau7CstRttiINS_13CstExprIfElseEE5valueE, align 4, !tbaa !4
  store i32 %6, ptr %0, align 4, !tbaa !8
  %7 = getelementptr inbounds nuw i8, ptr %0, i64 4
  store i64 %1, ptr %7, align 4
  %8 = getelementptr inbounds nuw i8, ptr %0, i64 12
  store i64 %2, ptr %8, align 4
  %9 = getelementptr inbounds nuw i8, ptr %0, i64 20
  store i8 %5, ptr %9, align 4, !tbaa !27
  ret void
}